; ModuleID = '31/1009.c'
source_filename = "31/1009.c"
target datalayout = "e-m:e-p270:32:32-p271:32:32-p272:64:64-i64:64-f80:128-n8:16:32:64-S128"
target triple = "x86_64-pc-linux-gnu"

%struct.Student = type { [10 x i8], [20 x i8], [2 x i8], [3 x i8], [6 x i8], [12 x i8], %struct.Student* }

@n = common dso_local global i32 0, align 4
@.str = private unnamed_addr constant [3 x i8] c"%s\00", align 1
@.str.1 = private unnamed_addr constant [4 x i8] c"end\00", align 1
@.str.2 = private unnamed_addr constant [11 x i8] c"%s%s%s%s%s\00", align 1
@.str.3 = private unnamed_addr constant [19 x i8] c"%s %s %s %s %s %s\0A\00", align 1

; Function Attrs: noinline nounwind uwtable
define dso_local %struct.Student* @creat() #0 {
  %1 = alloca %struct.Student*, align 8
  %2 = alloca %struct.Student*, align 8
  %3 = call noalias i8* @malloc(i64 100) #4
  %4 = bitcast i8* %3 to %struct.Student*
  store %struct.Student* %4, %struct.Student** %2, align 8
  store %struct.Student* null, %struct.Student** %1, align 8
  store i32 0, i32* @n, align 4
  %5 = load %struct.Student*, %struct.Student** %2, align 8
  %6 = getelementptr inbounds %struct.Student, %struct.Student* %5, i32 0, i32 0
  %7 = getelementptr inbounds [10 x i8], [10 x i8]* %6, i64 0, i64 0
  %8 = call i32 (i8*, ...) @__isoc99_scanf(i8* getelementptr inbounds ([3 x i8], [3 x i8]* @.str, i64 0, i64 0), i8* %7)
  br label %9

9:                                                ; preds = %43, %0
  %10 = load %struct.Student*, %struct.Student** %2, align 8
  %11 = getelementptr inbounds %struct.Student, %struct.Student* %10, i32 0, i32 0
  %12 = getelementptr inbounds [10 x i8], [10 x i8]* %11, i64 0, i64 0
  %13 = call i32 @strcmp(i8* %12, i8* getelementptr inbounds ([4 x i8], [4 x i8]* @.str.1, i64 0, i64 0)) #5
  %14 = icmp ne i32 %13, 0
  br i1 %14, label %15, label %50

15:                                               ; preds = %9
  %16 = load i32, i32* @n, align 4
  %17 = add nsw i32 %16, 1
  store i32 %17, i32* @n, align 4
  %18 = load %struct.Student*, %struct.Student** %2, align 8
  %19 = getelementptr inbounds %struct.Student, %struct.Student* %18, i32 0, i32 1
  %20 = getelementptr inbounds [20 x i8], [20 x i8]* %19, i64 0, i64 0
  %21 = load %struct.Student*, %struct.Student** %2, align 8
  %22 = getelementptr inbounds %struct.Student, %struct.Student* %21, i32 0, i32 2
  %23 = getelementptr inbounds [2 x i8], [2 x i8]* %22, i64 0, i64 0
  %24 = load %struct.Student*, %struct.Student** %2, align 8
  %25 = getelementptr inbounds %struct.Student, %struct.Student* %24, i32 0, i32 3
  %26 = getelementptr inbounds [3 x i8], [3 x i8]* %25, i64 0, i64 0
  %27 = load %struct.Student*, %struct.Student** %2, align 8
  %28 = getelementptr inbounds %struct.Student, %struct.Student* %27, i32 0, i32 4
  %29 = getelementptr inbounds [6 x i8], [6 x i8]* %28, i64 0, i64 0
  %30 = load %struct.Student*, %struct.Student** %2, align 8
  %31 = getelementptr inbounds %struct.Student, %struct.Student* %30, i32 0, i32 5
  %32 = getelementptr inbounds [12 x i8], [12 x i8]* %31, i64 0, i64 0
  %33 = call i32 (i8*, ...) @__isoc99_scanf(i8* getelementptr inbounds ([11 x i8], [11 x i8]* @.str.2, i64 0, i64 0), i8* %20, i8* %23, i8* %26, i8* %29, i8* %32)
  %34 = load i32, i32* @n, align 4
  %35 = icmp eq i32 %34, 1
  br i1 %35, label %36, label %38

36:                                               ; preds = %15
  %37 = load %struct.Student*, %struct.Student** %2, align 8
  store %struct.Student* %37, %struct.Student** %1, align 8
  br label %43

38:                                               ; preds = %15
  %39 = load %struct.Student*, %struct.Student** %1, align 8
  %40 = load %struct.Student*, %struct.Student** %2, align 8
  %41 = getelementptr inbounds %struct.Student, %struct.Student* %40, i32 0, i32 6
  store %struct.Student* %39, %struct.Student** %41, align 8
  %42 = load %struct.Student*, %struct.Student** %2, align 8
  store %struct.Student* %42, %struct.Student** %1, align 8
  br label %43

43:                                               ; preds = %38, %36
  %44 = call noalias i8* @malloc(i64 100) #4
  %45 = bitcast i8* %44 to %struct.Student*
  store %struct.Student* %45, %struct.Student** %2, align 8
  %46 = load %struct.Student*, %struct.Student** %2, align 8
  %47 = getelementptr inbounds %struct.Student, %struct.Student* %46, i32 0, i32 0
  %48 = getelementptr inbounds [10 x i8], [10 x i8]* %47, i64 0, i64 0
  %49 = call i32 (i8*, ...) @__isoc99_scanf(i8* getelementptr inbounds ([3 x i8], [3 x i8]* @.str, i64 0, i64 0), i8* %48)
  br label %9

50:                                               ; preds = %9
  %51 = load %struct.Student*, %struct.Student** %1, align 8
  ret %struct.Student* %51
}

; Function Attrs: nounwind
declare dso_local noalias i8* @malloc(i64) #1

declare dso_local i32 @__isoc99_scanf(i8*, ...) #2

; Function Attrs: nounwind readonly
declare dso_local i32 @strcmp(i8*, i8*) #3

; Function Attrs: noinline nounwind uwtable
define dso_local i32 @main() #0 {
  %1 = alloca i32, align 4
  %2 = alloca %struct.Student*, align 8
  store i32 0, i32* %1, align 4
  %3 = call %struct.Student* @creat()
  store %struct.Student* %3, %struct.Student** %2, align 8
  br label %4

4:                                                ; preds = %7, %0
  %5 = load %struct.Student*, %struct.Student** %2, align 8
  %6 = icmp ne %struct.Student* %5, null
  br i1 %6, label %7, label %30

7:                                                ; preds = %4
  %8 = load %struct.Student*, %struct.Student** %2, align 8
  %9 = getelementptr inbounds %struct.Student, %struct.Student* %8, i32 0, i32 0
  %10 = getelementptr inbounds [10 x i8], [10 x i8]* %9, i64 0, i64 0
  %11 = load %struct.Student*, %struct.Student** %2, align 8
  %12 = getelementptr inbounds %struct.Student, %struct.Student* %11, i32 0, i32 1
  %13 = getelementptr inbounds [20 x i8], [20 x i8]* %12, i64 0, i64 0
  %14 = load %struct.Student*, %struct.Student** %2, align 8
  %15 = getelementptr inbounds %struct.Student, %struct.Student* %14, i32 0, i32 2
  %16 = getelementptr inbounds [2 x i8], [2 x i8]* %15, i64 0, i64 0
  %17 = load %struct.Student*, %struct.Student** %2, align 8
  %18 = getelementptr inbounds %struct.Student, %struct.Student* %17, i32 0, i32 3
  %19 = getelementptr inbounds [3 x i8], [3 x i8]* %18, i64 0, i64 0
  %20 = load %struct.Student*, %struct.Student** %2, align 8
  %21 = getelementptr inbounds %struct.Student, %struct.Student* %20, i32 0, i32 4
  %22 = getelementptr inbounds [6 x i8], [6 x i8]* %21, i64 0, i64 0
  %23 = load %struct.Student*, %struct.Student** %2, align 8
  %24 = getelementptr inbounds %struct.Student, %struct.Student* %23, i32 0, i32 5
  %25 = getelementptr inbounds [12 x i8], [12 x i8]* %24, i64 0, i64 0
  %26 = call i32 (i8*, ...) @printf(i8* getelementptr inbounds ([19 x i8], [19 x i8]* @.str.3, i64 0, i64 0), i8* %10, i8* %13, i8* %16, i8* %19, i8* %22, i8* %25)
  %27 = load %struct.Student*, %struct.Student** %2, align 8
  %28 = getelementptr inbounds %struct.Student, %struct.Student* %27, i32 0, i32 6
  %29 = load %struct.Student*, %struct.Student** %28, align 8
  store %struct.Student* %29, %struct.Student** %2, align 8
  br label %4

30:                                               ; preds = %4
  ret i32 0
}

declare dso_local i32 @printf(i8*, ...) #2


!llvm.module.flags = !{!0}
!llvm.ident = !{!1}

!0 = !{i32 1, !"wchar_size", i32 4}
!1 = !{!"clang version 10.0.0-4ubuntu1 "}
